BL51 BANKED LINKER/LOCATER V6.22                                                        12/16/2015  00:53:21  PAGE 1


BL51 BANKED LINKER/LOCATER V6.22, INVOKED BY:
C:\KEIL\C51\BIN\BL51.EXE test_code.obj TO test_code


MEMORY MODEL: SMALL


INPUT MODULES INCLUDED:
  test_code.obj (TEST_CODE)
  C:\KEIL\C51\LIB\C51S.LIB (?C_STARTUP)
  C:\KEIL\C51\LIB\C51S.LIB (?C?CLDPTR)


LINK MAP OF MODULE:  test_code (TEST_CODE)


            TYPE    BASE      LENGTH    RELOCATION   SEGMENT NAME
            -----------------------------------------------------

            * * * * * * *   D A T A   M E M O R Y   * * * * * * *
            REG     0000H     0008H     ABSOLUTE     "REG BANK 0"
            IDATA   0008H     0001H     UNIT         ?STACK

            * * * * * * *   C O D E   M E M O R Y   * * * * * * *
            CODE    0000H     0003H     ABSOLUTE     
                    0003H     07FDH                  *** GAP ***
            CODE    0800H     0070H     UNIT         ?CO?TEST_CODE
            CODE    0870H     0067H     UNIT         ?PR?MAIN?TEST_CODE
            CODE    08D7H     003CH     UNIT         ?PR?_DELAY?TEST_CODE
            CODE    0913H     0030H     UNIT         ?PR?LCD?TEST_CODE
            CODE    0943H     0028H     UNIT         ?PR?_STRING?TEST_CODE
            CODE    096BH     001EH     UNIT         ?PR?MSG?TEST_CODE
            CODE    0989H     0019H     UNIT         ?C?LIB_CODE
            CODE    09A2H     0016H     UNIT         ?PR?_SEND?TEST_CODE
            CODE    09B8H     0012H     UNIT         ?PR?_CMD?TEST_CODE
            CODE    09CAH     0012H     UNIT         ?PR?_DAT?TEST_CODE
            CODE    09DCH     000CH     UNIT         ?PR?SERIAL_CMM_INIT?TEST_CODE
            CODE    09E8H     000CH     UNIT         ?C_C51STARTUP



OVERLAY MAP OF MODULE:   test_code (TEST_CODE)


SEGMENT
  +--> CALLED SEGMENT
---------------------
?C_C51STARTUP
  +--> ?PR?MAIN?TEST_CODE

?PR?MAIN?TEST_CODE
  +--> ?PR?SERIAL_CMM_INIT?TEST_CODE
  +--> ?PR?LCD?TEST_CODE
  +--> ?PR?MSG?TEST_CODE
  +--> ?CO?TEST_CODE
  +--> ?PR?_SEND?TEST_CODE
  +--> ?PR?_DELAY?TEST_CODE
  +--> ?PR?_CMD?TEST_CODE
BL51 BANKED LINKER/LOCATER V6.22                                                      12/16/2015  00:53:21  PAGE 2


  +--> ?PR?_STRING?TEST_CODE

?PR?LCD?TEST_CODE
  +--> ?PR?_CMD?TEST_CODE
  +--> ?PR?_DELAY?TEST_CODE

?PR?_CMD?TEST_CODE
  +--> ?PR?_DELAY?TEST_CODE

?PR?_DELAY?TEST_CODE
  +--> ?PR?_SEND?TEST_CODE

?PR?MSG?TEST_CODE
  +--> ?CO?TEST_CODE
  +--> ?PR?_DELAY?TEST_CODE

?PR?_STRING?TEST_CODE
  +--> ?PR?_CMD?TEST_CODE
  +--> ?CO?TEST_CODE
  +--> ?PR?_DAT?TEST_CODE
  +--> ?PR?_DELAY?TEST_CODE

?PR?_DAT?TEST_CODE
  +--> ?PR?_DELAY?TEST_CODE



SYMBOL TABLE OF MODULE:  test_code (TEST_CODE)

  VALUE           TYPE          NAME
  ----------------------------------

  -------         MODULE        TEST_CODE
  C:0000H         SYMBOL        _ICE_DUMMY_
  D:0090H         PUBLIC        P1
  D:00A0H         PUBLIC        P2
  D:00B0H         PUBLIC        P3
  C:0908H         PUBLIC        _delay
  C:0951H         PUBLIC        _string
  B:0098H.1       PUBLIC        TI
  C:0870H         PUBLIC        main
  C:09A2H         PUBLIC        _send
  D:0099H         PUBLIC        SBUF
  C:0913H         PUBLIC        lcd
  D:0098H         PUBLIC        SCON
  C:09B8H         PUBLIC        _cmd
  D:0089H         PUBLIC        TMOD
  B:00B0H.2       PUBLIC        fan
  B:0090H.4       PUBLIC        temp
  C:09CAH         PUBLIC        _dat
  C:09DCH         PUBLIC        serial_cmm_init
  B:0090H.3       PUBLIC        gas
  C:096BH         PUBLIC        msg
  D:008DH         PUBLIC        TH1
  B:0088H.6       PUBLIC        TR1
  B:00B0H.3       PUBLIC        motor_pump
  B:0090H.2       PUBLIC        e
BL51 BANKED LINKER/LOCATER V6.22                                                      12/16/2015  00:53:21  PAGE 3


  B:0090H.0       PUBLIC        rs
  B:0090H.1       PUBLIC        rw
  -------         PROC          SERIAL_CMM_INIT
  C:09DCH         LINE#         15
  C:09DCH         LINE#         16
  C:09DCH         LINE#         17
  C:09DFH         LINE#         18
  C:09E2H         LINE#         19
  C:09E5H         LINE#         20
  C:09E7H         LINE#         21
  -------         ENDPROC       SERIAL_CMM_INIT
  C:08D7H         SYMBOL        L?0028
  C:08DAH         SYMBOL        L?0029
  C:0904H         SYMBOL        L?0030
  -------         PROC          L?0027
  -------         ENDPROC       L?0027
  C:08D7H         SYMBOL        L?0028
  C:08DAH         SYMBOL        L?0029
  C:0904H         SYMBOL        L?0030
  -------         PROC          _DELAY
  D:0006H         SYMBOL        i
  C:0908H         LINE#         24
  C:0908H         LINE#         25
  C:0908H         LINE#         26
  C:0912H         LINE#         27
  -------         ENDPROC       _DELAY
  -------         PROC          _CMD
  D:0007H         SYMBOL        c
  C:09B8H         LINE#         29
  C:09B8H         LINE#         30
  C:09B8H         LINE#         31
  C:09BAH         LINE#         32
  C:09BCH         LINE#         33
  C:09BEH         LINE#         34
  C:09C0H         LINE#         35
  C:09C7H         LINE#         36
  C:09C9H         LINE#         37
  -------         ENDPROC       _CMD
  -------         PROC          _DAT
  D:0007H         SYMBOL        c
  C:09CAH         LINE#         39
  C:09CAH         LINE#         40
  C:09CAH         LINE#         41
  C:09CCH         LINE#         42
  C:09CEH         LINE#         43
  C:09D0H         LINE#         44
  C:09D2H         LINE#         45
  C:09D9H         LINE#         46
  C:09DBH         LINE#         47
  -------         ENDPROC       _DAT
  -------         PROC          L?0031
  -------         ENDPROC       L?0031
  -------         PROC          _STRING
  D:0001H         SYMBOL        p
  C:0951H         LINE#         49
  C:0951H         LINE#         50
  C:0951H         LINE#         51
BL51 BANKED LINKER/LOCATER V6.22                                                      12/16/2015  00:53:21  PAGE 4


  C:0957H         LINE#         52
  C:0957H         LINE#         53
  C:095AH         LINE#         54
  C:0961H         LINE#         55
  C:0968H         LINE#         56
  C:096AH         LINE#         57
  -------         ENDPROC       _STRING
  -------         PROC          LCD
  C:0913H         LINE#         59
  C:0913H         LINE#         60
  C:0913H         LINE#         61
  C:0918H         LINE#         62
  C:091FH         LINE#         63
  C:0924H         LINE#         64
  C:092BH         LINE#         65
  C:0930H         LINE#         66
  C:0937H         LINE#         67
  C:093CH         LINE#         68
  -------         ENDPROC       LCD
  -------         PROC          _SEND
  D:0001H         SYMBOL        p
  C:09A2H         LINE#         73
  C:09A2H         LINE#         74
  C:09A2H         LINE#         75
  C:09A7H         LINE#         76
  C:09A7H         LINE#         77
  C:09A9H         LINE#         78
  C:09B0H         LINE#         79
  C:09B3H         LINE#         80
  C:09B5H         LINE#         81
  C:09B7H         LINE#         82
  -------         ENDPROC       _SEND
  -------         PROC          MSG
  C:096BH         LINE#         84
  C:096BH         LINE#         85
  C:096BH         LINE#         86
  C:0971H         LINE#         87
  C:0971H         LINE#         88
  C:0971H         LINE#         89
  C:0971H         LINE#         90
  C:0971H         LINE#         91
  C:0971H         LINE#         92
  C:0971H         LINE#         93
  C:0974H         LINE#         95
  C:0978H         LINE#         96
  C:0978H         LINE#         97
  C:0978H         LINE#         98
  C:0978H         LINE#         99
  C:0978H         LINE#         100
  C:0978H         LINE#         101
  C:0978H         LINE#         102
  C:097BH         LINE#         105
  C:097FH         LINE#         106
  C:097FH         LINE#         107
  C:097FH         LINE#         108
  C:097FH         LINE#         109
  C:097FH         LINE#         110
BL51 BANKED LINKER/LOCATER V6.22                                                      12/16/2015  00:53:21  PAGE 5


  C:097FH         LINE#         111
  C:097FH         LINE#         112
  C:0982H         LINE#         113
  -------         ENDPROC       MSG
  -------         PROC          MAIN
  C:0870H         LINE#         118
  C:0870H         LINE#         119
  C:0870H         LINE#         121
  C:0873H         LINE#         122
  C:0876H         LINE#         123
  C:0878H         LINE#         124
  C:087AH         LINE#         125
  C:087CH         LINE#         126
  C:087EH         LINE#         128
  C:087EH         LINE#         129
  C:087EH         LINE#         131
  C:0881H         LINE#         132
  C:0881H         LINE#         133
  C:0883H         LINE#         134
  C:0886H         LINE#         135
  C:088FH         LINE#         137
  C:0892H         LINE#         138
  C:0895H         LINE#         139
  C:0897H         LINE#         140
  C:0897H         LINE#         141
  C:0897H         LINE#         142
  C:0897H         LINE#         143
  C:0897H         LINE#         144
  C:0897H         LINE#         145
  C:0897H         LINE#         146
  C:089AH         LINE#         147
  C:089DH         LINE#         149
  C:08A2H         LINE#         150
  C:08A6H         LINE#         151
  C:08A6H         LINE#         152
  C:08A9H         LINE#         153
  C:08A9H         LINE#         156
  C:08ACH         LINE#         157
  C:08ACH         LINE#         158
  C:08AEH         LINE#         159
  C:08B1H         LINE#         160
  C:08BAH         LINE#         162
  C:08BDH         LINE#         163
  C:08C0H         LINE#         164
  C:08C2H         LINE#         165
  C:08C2H         LINE#         166
  C:08C2H         LINE#         167
  C:08C2H         LINE#         168
  C:08C2H         LINE#         169
  C:08C2H         LINE#         170
  C:08C2H         LINE#         171
  C:08C5H         LINE#         172
  C:08C8H         LINE#         174
  C:08CDH         LINE#         175
  C:08D1H         LINE#         176
  C:08D1H         LINE#         177
  C:08D4H         LINE#         178
BL51 BANKED LINKER/LOCATER V6.22                                                      12/16/2015  00:53:21  PAGE 6


  C:08D4H         LINE#         180
  -------         ENDPROC       MAIN
  -------         ENDMOD        TEST_CODE

  -------         MODULE        ?C?CLDPTR
  C:0989H         PUBLIC        ?C?CLDPTR
  -------         ENDMOD        ?C?CLDPTR

******************************************************************************
* RESTRICTED VERSION WITH 0800H BYTE CODE SIZE LIMIT; USED: 01CFH BYTE (22%) *
******************************************************************************

Program Size: data=9.0 xdata=0 code=503
LINK/LOCATE RUN COMPLETE.  0 WARNING(S),  0 ERROR(S)
